target datalayout = "e-m:e-p270:32:32-p271:32:32-p272:64:64-i64:64-i128:128-f80:128-n8:16:32:64-S128"
target triple = "x86_64-pc-linux-gnu"

%struct.tm = type { i32, i32, i32, i32, i32, i32, i32, i32, i32, i64, ptr }

@.str.7 = private unnamed_addr constant [4 x i8] c"sec\00", align 1
@.str.8 = private unnamed_addr constant [4 x i8] c"min\00", align 1
@.str.9 = private unnamed_addr constant [5 x i8] c"hour\00", align 1
@.str.10 = private unnamed_addr constant [4 x i8] c"day\00", align 1
@.str.11 = private unnamed_addr constant [6 x i8] c"month\00", align 1
@.str.12 = private unnamed_addr constant [5 x i8] c"year\00", align 1
@.str.15 = private unnamed_addr constant [6 x i8] c"isdst\00", align 1
@.str.18 = private unnamed_addr constant [33 x i8] c"field '%s' missing in date table\00", align 1

; Function Attrs: mustprogress nounwind uwtable
define internal noundef i64 @_ZL9os_timegmP2tm(ptr noundef %0) #7 {
  %2 = alloca i64, align 8
  %3 = alloca ptr, align 8
  %4 = alloca i32, align 4
  %5 = alloca i32, align 4
  %6 = alloca i32, align 4
  %7 = alloca i32, align 4
  %8 = alloca i32, align 4
  %9 = alloca i32, align 4
  %10 = alloca i32, align 4
  %11 = alloca i32, align 4
  %12 = alloca i64, align 8
  %13 = alloca i32, align 4
  %14 = alloca i64, align 8
  %15 = alloca i64, align 8
  %16 = alloca i64, align 8
  store ptr %0, ptr %3, align 8, !tbaa !14
  call void @llvm.lifetime.start.p0(i64 4, ptr %4) #8
  %17 = load ptr, ptr %3, align 8, !tbaa !14
  %18 = getelementptr inbounds nuw %struct.tm, ptr %17, i32 0, i32 3
  %19 = load i32, ptr %18, align 4, !tbaa !21
  store i32 %19, ptr %4, align 4, !tbaa !33
  call void @llvm.lifetime.start.p0(i64 4, ptr %5) #8
  %20 = load ptr, ptr %3, align 8, !tbaa !14
  %21 = getelementptr inbounds nuw %struct.tm, ptr %20, i32 0, i32 4
  %22 = load i32, ptr %21, align 8, !tbaa !22
  %23 = add nsw i32 %22, 1
  store i32 %23, ptr %5, align 4, !tbaa !33
  call void @llvm.lifetime.start.p0(i64 4, ptr %6) #8
  %24 = load ptr, ptr %3, align 8, !tbaa !14
  %25 = getelementptr inbounds nuw %struct.tm, ptr %24, i32 0, i32 5
  %26 = load i32, ptr %25, align 4, !tbaa !23
  %27 = add nsw i32 %26, 1900
  store i32 %27, ptr %6, align 4, !tbaa !33
  call void @llvm.lifetime.start.p0(i64 4, ptr %7) #8
  %28 = load ptr, ptr %3, align 8, !tbaa !14
  %29 = getelementptr inbounds nuw %struct.tm, ptr %28, i32 0, i32 4
  %30 = load i32, ptr %29, align 8, !tbaa !22
  %31 = srem i32 %30, 12
  %32 = icmp slt i32 %31, 2
  %33 = select i1 %32, i32 1, i32 0
  store i32 %33, ptr %7, align 4, !tbaa !33
  %34 = load ptr, ptr %3, align 8, !tbaa !14
  %35 = getelementptr inbounds nuw %struct.tm, ptr %34, i32 0, i32 4
  %36 = load i32, ptr %35, align 8, !tbaa !22
  %37 = sdiv i32 %36, 12
  %38 = load i32, ptr %7, align 4, !tbaa !33
  %39 = sub nsw i32 %38, %37
  store i32 %39, ptr %7, align 4, !tbaa !33
  call void @llvm.lifetime.start.p0(i64 4, ptr %8) #8
  %40 = load i32, ptr %6, align 4, !tbaa !33
  %41 = add nsw i32 %40, 4800
  %42 = load i32, ptr %7, align 4, !tbaa !33
  %43 = sub nsw i32 %41, %42
  store i32 %43, ptr %8, align 4, !tbaa !33
  call void @llvm.lifetime.start.p0(i64 4, ptr %9) #8
  %44 = load i32, ptr %5, align 4, !tbaa !33
  %45 = load i32, ptr %7, align 4, !tbaa !33
  %46 = mul nsw i32 12, %45
  %47 = add nsw i32 %44, %46
  %48 = sub nsw i32 %47, 3
  store i32 %48, ptr %9, align 4, !tbaa !33
  call void @llvm.lifetime.start.p0(i64 4, ptr %10) #8
  %49 = load i32, ptr %4, align 4, !tbaa !33
  %50 = load i32, ptr %9, align 4, !tbaa !33
  %51 = mul nsw i32 153, %50
  %52 = add nsw i32 %51, 2
  %53 = sdiv i32 %52, 5
  %54 = add nsw i32 %49, %53
  %55 = load i32, ptr %8, align 4, !tbaa !33
  %56 = mul nsw i32 365, %55
  %57 = add nsw i32 %54, %56
  %58 = load i32, ptr %8, align 4, !tbaa !33
  %59 = sdiv i32 %58, 4
  %60 = add nsw i32 %57, %59
  %61 = load i32, ptr %8, align 4, !tbaa !33
  %62 = sdiv i32 %61, 100
  %63 = sub nsw i32 %60, %62
  %64 = load i32, ptr %8, align 4, !tbaa !33
  %65 = sdiv i32 %64, 400
  %66 = add nsw i32 %63, %65
  %67 = sub nsw i32 %66, 32045
  store i32 %67, ptr %10, align 4, !tbaa !33
  call void @llvm.lifetime.start.p0(i64 4, ptr %11) #8
  store i32 2440588, ptr %11, align 4, !tbaa !33
  call void @llvm.lifetime.start.p0(i64 8, ptr %12) #8
  store i64 210866803200, ptr %12, align 8, !tbaa !11
  %68 = load i32, ptr %10, align 4, !tbaa !33
  %69 = icmp slt i32 %68, 2440588
  br i1 %69, label %70, label %71

70:                                               ; preds = %1
  store i64 -1, ptr %2, align 8
  store i32 1, ptr %13, align 4
  br label %101

71:                                               ; preds = %1
  call void @llvm.lifetime.start.p0(i64 8, ptr %14) #8
  %72 = load ptr, ptr %3, align 8, !tbaa !14
  %73 = getelementptr inbounds nuw %struct.tm, ptr %72, i32 0, i32 2
  %74 = load i32, ptr %73, align 8, !tbaa !20
  %75 = sext i32 %74 to i64
  %76 = mul nsw i64 %75, 3600
  %77 = load ptr, ptr %3, align 8, !tbaa !14
  %78 = getelementptr inbounds nuw %struct.tm, ptr %77, i32 0, i32 1
  %79 = load i32, ptr %78, align 4, !tbaa !19
  %80 = sext i32 %79 to i64
  %81 = mul nsw i64 %80, 60
  %82 = add nsw i64 %76, %81
  %83 = load ptr, ptr %3, align 8, !tbaa !14
  %84 = getelementptr inbounds nuw %struct.tm, ptr %83, i32 0, i32 0
  %85 = load i32, ptr %84, align 8, !tbaa !16
  %86 = sext i32 %85 to i64
  %87 = add nsw i64 %82, %86
  store i64 %87, ptr %14, align 8, !tbaa !11
  call void @llvm.lifetime.start.p0(i64 8, ptr %15) #8
  %88 = load i32, ptr %10, align 4, !tbaa !33
  %89 = sext i32 %88 to i64
  %90 = mul i64 %89, 86400
  %91 = load i64, ptr %14, align 8, !tbaa !11
  %92 = add i64 %90, %91
  store i64 %92, ptr %15, align 8, !tbaa !11
  %93 = load i64, ptr %15, align 8, !tbaa !11
  %94 = icmp slt i64 %93, 210866803200
  br i1 %94, label %95, label %96

95:                                               ; preds = %71
  store i64 -1, ptr %2, align 8
  store i32 1, ptr %13, align 4
  br label %100

96:                                               ; preds = %71
  call void @llvm.lifetime.start.p0(i64 8, ptr %16) #8
  %97 = load i64, ptr %15, align 8, !tbaa !11
  %98 = sub nsw i64 %97, 210866803200
  store i64 %98, ptr %16, align 8, !tbaa !11
  %99 = load i64, ptr %16, align 8, !tbaa !11
  store i64 %99, ptr %2, align 8
  store i32 1, ptr %13, align 4
  call void @llvm.lifetime.end.p0(i64 8, ptr %16) #8
  br label %100

100:                                              ; preds = %96, %95
  call void @llvm.lifetime.end.p0(i64 8, ptr %15) #8
  call void @llvm.lifetime.end.p0(i64 8, ptr %14) #8
  br label %101

101:                                              ; preds = %100, %70
  call void @llvm.lifetime.end.p0(i64 8, ptr %12) #8
  call void @llvm.lifetime.end.p0(i64 4, ptr %11) #8
  call void @llvm.lifetime.end.p0(i64 4, ptr %10) #8
  call void @llvm.lifetime.end.p0(i64 4, ptr %9) #8
  call void @llvm.lifetime.end.p0(i64 4, ptr %8) #8
  call void @llvm.lifetime.end.p0(i64 4, ptr %7) #8
  call void @llvm.lifetime.end.p0(i64 4, ptr %6) #8
  call void @llvm.lifetime.end.p0(i64 4, ptr %5) #8
  call void @llvm.lifetime.end.p0(i64 4, ptr %4) #8
  %102 = load i64, ptr %2, align 8
  ret i64 %102
}

; Function Attrs: mustprogress uwtable
define internal noundef i32 @_ZL12getboolfieldP9lua_StatePKc(ptr noundef %0, ptr noundef %1) #0 {
  %3 = alloca ptr, align 8
  %4 = alloca ptr, align 8
  %5 = alloca i32, align 4
  store ptr %0, ptr %3, align 8, !tbaa !4
  store ptr %1, ptr %4, align 8, !tbaa !9
  call void @llvm.lifetime.start.p0(i64 4, ptr %5) #8
  %6 = load ptr, ptr %3, align 8, !tbaa !4
  %7 = load ptr, ptr %4, align 8, !tbaa !9
  %8 = call noundef i32 @_Z15lua_rawgetfieldP9lua_StateiPKc(ptr noundef %6, i32 noundef -1, ptr noundef %7)
  %9 = load ptr, ptr %3, align 8, !tbaa !4
  %10 = call noundef i32 @_Z8lua_typeP9lua_Statei(ptr noundef %9, i32 noundef -1)
  %11 = icmp eq i32 %10, 0
  br i1 %11, label %12, label %13

12:                                               ; preds = %2
  br label %16

13:                                               ; preds = %2
  %14 = load ptr, ptr %3, align 8, !tbaa !4
  %15 = call noundef i32 @_Z13lua_tobooleanP9lua_Statei(ptr noundef %14, i32 noundef -1)
  br label %16

16:                                               ; preds = %13, %12
  %17 = phi i32 [ -1, %12 ], [ %15, %13 ]
  store i32 %17, ptr %5, align 4, !tbaa !33
  %18 = load ptr, ptr %3, align 8, !tbaa !4
  call void @_Z10lua_settopP9lua_Statei(ptr noundef %18, i32 noundef -2)
  %19 = load i32, ptr %5, align 4, !tbaa !33
  call void @llvm.lifetime.end.p0(i64 4, ptr %5) #8
  ret i32 %19
}

; Function Attrs: mustprogress uwtable
define internal noundef i32 @_ZL8getfieldP9lua_StatePKci(ptr noundef %0, ptr noundef %1, i32 noundef %2) #0 {
  %4 = alloca ptr, align 8
  %5 = alloca ptr, align 8
  %6 = alloca i32, align 4
  %7 = alloca i32, align 4
  store ptr %0, ptr %4, align 8, !tbaa !4
  store ptr %1, ptr %5, align 8, !tbaa !9
  store i32 %2, ptr %6, align 4, !tbaa !33
  call void @llvm.lifetime.start.p0(i64 4, ptr %7) #8
  %8 = load ptr, ptr %4, align 8, !tbaa !4
  %9 = load ptr, ptr %5, align 8, !tbaa !9
  %10 = call noundef i32 @_Z15lua_rawgetfieldP9lua_StateiPKc(ptr noundef %8, i32 noundef -1, ptr noundef %9)
  %11 = load ptr, ptr %4, align 8, !tbaa !4
  %12 = call noundef i32 @_Z12lua_isnumberP9lua_Statei(ptr noundef %11, i32 noundef -1)
  %13 = icmp ne i32 %12, 0
  br i1 %13, label %14, label %17

14:                                               ; preds = %3
  %15 = load ptr, ptr %4, align 8, !tbaa !4
  %16 = call noundef i32 @_Z14lua_tointegerxP9lua_StateiPi(ptr noundef %15, i32 noundef -1, ptr noundef null)
  store i32 %16, ptr %7, align 4, !tbaa !33
  br label %25

17:                                               ; preds = %3
  %18 = load i32, ptr %6, align 4, !tbaa !33
  %19 = icmp slt i32 %18, 0
  br i1 %19, label %20, label %23

20:                                               ; preds = %17
  %21 = load ptr, ptr %4, align 8, !tbaa !4
  %22 = load ptr, ptr %5, align 8, !tbaa !9
  call void (ptr, ptr, ...) @_Z11luaL_errorLP9lua_StatePKcz(ptr noundef %21, ptr noundef @.str.18, ptr noundef %22) #10
  unreachable

23:                                               ; preds = %17
  %24 = load i32, ptr %6, align 4, !tbaa !33
  store i32 %24, ptr %7, align 4, !tbaa !33
  br label %25

25:                                               ; preds = %23, %14
  %26 = load ptr, ptr %4, align 8, !tbaa !4
  call void @_Z10lua_settopP9lua_Statei(ptr noundef %26, i32 noundef -2)
  %27 = load i32, ptr %7, align 4, !tbaa !33
  call void @llvm.lifetime.end.p0(i64 4, ptr %7) #8
  ret i32 %27
}

; Function Attrs: mustprogress uwtable
define internal noundef i32 @_ZL7os_timeP9lua_State(ptr noundef %0) #0 {
  %2 = alloca ptr, align 8
  %3 = alloca i64, align 8
  %4 = alloca %struct.tm, align 8
  store ptr %0, ptr %2, align 8, !tbaa !4
  call void @llvm.lifetime.start.p0(i64 8, ptr %3) #8
  %5 = load ptr, ptr %2, align 8, !tbaa !4
  %6 = call noundef i32 @_Z8lua_typeP9lua_Statei(ptr noundef %5, i32 noundef 1)
  %7 = icmp sle i32 %6, 0
  br i1 %7, label %8, label %10

8:                                                ; preds = %1
  %9 = call i64 @time(ptr noundef null) #8
  store i64 %9, ptr %3, align 8, !tbaa !11
  br label %37

10:                                               ; preds = %1
  call void @llvm.lifetime.start.p0(i64 56, ptr %4) #8
  %11 = load ptr, ptr %2, align 8, !tbaa !4
  call void @_Z14luaL_checktypeP9lua_Stateii(ptr noundef %11, i32 noundef 1, i32 noundef 6)
  %12 = load ptr, ptr %2, align 8, !tbaa !4
  call void @_Z10lua_settopP9lua_Statei(ptr noundef %12, i32 noundef 1)
  %13 = load ptr, ptr %2, align 8, !tbaa !4
  %14 = call noundef i32 @_ZL8getfieldP9lua_StatePKci(ptr noundef %13, ptr noundef @.str.7, i32 noundef 0)
  %15 = getelementptr inbounds nuw %struct.tm, ptr %4, i32 0, i32 0
  store i32 %14, ptr %15, align 8, !tbaa !16
  %16 = load ptr, ptr %2, align 8, !tbaa !4
  %17 = call noundef i32 @_ZL8getfieldP9lua_StatePKci(ptr noundef %16, ptr noundef @.str.8, i32 noundef 0)
  %18 = getelementptr inbounds nuw %struct.tm, ptr %4, i32 0, i32 1
  store i32 %17, ptr %18, align 4, !tbaa !19
  %19 = load ptr, ptr %2, align 8, !tbaa !4
  %20 = call noundef i32 @_ZL8getfieldP9lua_StatePKci(ptr noundef %19, ptr noundef @.str.9, i32 noundef 12)
  %21 = getelementptr inbounds nuw %struct.tm, ptr %4, i32 0, i32 2
  store i32 %20, ptr %21, align 8, !tbaa !20
  %22 = load ptr, ptr %2, align 8, !tbaa !4
  %23 = call noundef i32 @_ZL8getfieldP9lua_StatePKci(ptr noundef %22, ptr noundef @.str.10, i32 noundef -1)
  %24 = getelementptr inbounds nuw %struct.tm, ptr %4, i32 0, i32 3
  store i32 %23, ptr %24, align 4, !tbaa !21
  %25 = load ptr, ptr %2, align 8, !tbaa !4
  %26 = call noundef i32 @_ZL8getfieldP9lua_StatePKci(ptr noundef %25, ptr noundef @.str.11, i32 noundef -1)
  %27 = sub nsw i32 %26, 1
  %28 = getelementptr inbounds nuw %struct.tm, ptr %4, i32 0, i32 4
  store i32 %27, ptr %28, align 8, !tbaa !22
  %29 = load ptr, ptr %2, align 8, !tbaa !4
  %30 = call noundef i32 @_ZL8getfieldP9lua_StatePKci(ptr noundef %29, ptr noundef @.str.12, i32 noundef -1)
  %31 = sub nsw i32 %30, 1900
  %32 = getelementptr inbounds nuw %struct.tm, ptr %4, i32 0, i32 5
  store i32 %31, ptr %32, align 4, !tbaa !23
  %33 = load ptr, ptr %2, align 8, !tbaa !4
  %34 = call noundef i32 @_ZL12getboolfieldP9lua_StatePKc(ptr noundef %33, ptr noundef @.str.15)
  %35 = getelementptr inbounds nuw %struct.tm, ptr %4, i32 0, i32 8
  store i32 %34, ptr %35, align 8, !tbaa !26
  %36 = call noundef i64 @_ZL9os_timegmP2tm(ptr noundef %4)
  store i64 %36, ptr %3, align 8, !tbaa !11
  call void @llvm.lifetime.end.p0(i64 56, ptr %4) #8
  br label %37

37:                                               ; preds = %10, %8
  %38 = load i64, ptr %3, align 8, !tbaa !11
  %39 = icmp eq i64 %38, -1
  br i1 %39, label %40, label %42

40:                                               ; preds = %37
  %41 = load ptr, ptr %2, align 8, !tbaa !4
  call void @_Z11lua_pushnilP9lua_State(ptr noundef %41)
  br label %46

42:                                               ; preds = %37
  %43 = load ptr, ptr %2, align 8, !tbaa !4
  %44 = load i64, ptr %3, align 8, !tbaa !11
  %45 = sitofp i64 %44 to double
  call void @_Z14lua_pushnumberP9lua_Stated(ptr noundef %43, double noundef %45)
  br label %46

46:                                               ; preds = %42, %40
  call void @llvm.lifetime.end.p0(i64 8, ptr %3) #8
  ret i32 1
}