; Function Attrs: mustprogress uwtable
define internal noundef i32 @_ZL7os_timeP9lua_State(ptr noundef %0) #0 {
  %2 = tail call noundef i32 @_Z8lua_typeP9lua_Statei(ptr noundef %0, i32 noundef 1)
  %3 = icmp slt i32 %2, 1
  br i1 %3, label %4, label %6

4:                                                ; preds = %1
  %5 = tail call i64 @time(ptr noundef null) #8
  br label %_ZL9os_timegmP2tm.exit

6:                                                ; preds = %1
  tail call void @_Z14luaL_checktypeP9lua_Stateii(ptr noundef %0, i32 noundef 1, i32 noundef 6)
  tail call void @_Z10lua_settopP9lua_Statei(ptr noundef %0, i32 noundef 1)
  %7 = tail call noundef i32 @_Z15lua_rawgetfieldP9lua_StateiPKc(ptr noundef %0, i32 noundef -1, ptr noundef nonnull @.str.7)
  %8 = tail call noundef i32 @_Z12lua_isnumberP9lua_Statei(ptr noundef %0, i32 noundef -1)
  %.not.i = icmp eq i32 %8, 0
  br i1 %.not.i, label %_ZL8getfieldP9lua_StatePKci.exit, label %9

9:                                                ; preds = %6
  %10 = tail call noundef i32 @_Z14lua_tointegerxP9lua_StateiPi(ptr noundef %0, i32 noundef -1, ptr noundef null)
  %11 = sext i32 %10 to i64
  br label %_ZL8getfieldP9lua_StatePKci.exit

_ZL8getfieldP9lua_StatePKci.exit:                 ; preds = %6, %9
  %.0.i = phi i64 [ %11, %9 ], [ 0, %6 ]
  tail call void @_Z10lua_settopP9lua_Statei(ptr noundef %0, i32 noundef -2)
  %12 = tail call noundef i32 @_Z15lua_rawgetfieldP9lua_StateiPKc(ptr noundef %0, i32 noundef -1, ptr noundef nonnull @.str.8)
  %13 = tail call noundef i32 @_Z12lua_isnumberP9lua_Statei(ptr noundef %0, i32 noundef -1)
  %.not.i13 = icmp eq i32 %13, 0
  br i1 %.not.i13, label %_ZL8getfieldP9lua_StatePKci.exit15, label %14

14:                                               ; preds = %_ZL8getfieldP9lua_StatePKci.exit
  %15 = tail call noundef i32 @_Z14lua_tointegerxP9lua_StateiPi(ptr noundef %0, i32 noundef -1, ptr noundef null)
  %16 = sext i32 %15 to i64
  %17 = mul nsw i64 %16, 60
  br label %_ZL8getfieldP9lua_StatePKci.exit15

_ZL8getfieldP9lua_StatePKci.exit15:               ; preds = %_ZL8getfieldP9lua_StatePKci.exit, %14
  %.0.i14 = phi i64 [ %17, %14 ], [ 0, %_ZL8getfieldP9lua_StatePKci.exit ]
  tail call void @_Z10lua_settopP9lua_Statei(ptr noundef %0, i32 noundef -2)
  %18 = tail call noundef i32 @_Z15lua_rawgetfieldP9lua_StateiPKc(ptr noundef %0, i32 noundef -1, ptr noundef nonnull @.str.9)
  %19 = tail call noundef i32 @_Z12lua_isnumberP9lua_Statei(ptr noundef %0, i32 noundef -1)
  %.not.i16 = icmp eq i32 %19, 0
  br i1 %.not.i16, label %_ZL8getfieldP9lua_StatePKci.exit18, label %20

20:                                               ; preds = %_ZL8getfieldP9lua_StatePKci.exit15
  %21 = tail call noundef i32 @_Z14lua_tointegerxP9lua_StateiPi(ptr noundef %0, i32 noundef -1, ptr noundef null)
  %22 = sext i32 %21 to i64
  %23 = mul nsw i64 %22, 3600
  br label %_ZL8getfieldP9lua_StatePKci.exit18

_ZL8getfieldP9lua_StatePKci.exit18:               ; preds = %_ZL8getfieldP9lua_StatePKci.exit15, %20
  %.0.i17 = phi i64 [ %23, %20 ], [ 43200, %_ZL8getfieldP9lua_StatePKci.exit15 ]
  tail call void @_Z10lua_settopP9lua_Statei(ptr noundef %0, i32 noundef -2)
  %24 = tail call noundef i32 @_Z15lua_rawgetfieldP9lua_StateiPKc(ptr noundef %0, i32 noundef -1, ptr noundef nonnull @.str.10)
  %25 = tail call noundef i32 @_Z12lua_isnumberP9lua_Statei(ptr noundef %0, i32 noundef -1)
  %.not.i19 = icmp eq i32 %25, 0
  br i1 %.not.i19, label %26, label %_ZL8getfieldP9lua_StatePKci.exit21

26:                                               ; preds = %_ZL8getfieldP9lua_StatePKci.exit18
  tail call void (ptr, ptr, ...) @_Z11luaL_errorLP9lua_StatePKcz(ptr noundef %0, ptr noundef nonnull @.str.18, ptr noundef nonnull @.str.10) #9
  unreachable

_ZL8getfieldP9lua_StatePKci.exit21:               ; preds = %_ZL8getfieldP9lua_StatePKci.exit18
  %27 = tail call noundef i32 @_Z14lua_tointegerxP9lua_StateiPi(ptr noundef %0, i32 noundef -1, ptr noundef null)
  tail call void @_Z10lua_settopP9lua_Statei(ptr noundef %0, i32 noundef -2)
  %28 = tail call noundef i32 @_Z15lua_rawgetfieldP9lua_StateiPKc(ptr noundef %0, i32 noundef -1, ptr noundef nonnull @.str.11)
  %29 = tail call noundef i32 @_Z12lua_isnumberP9lua_Statei(ptr noundef %0, i32 noundef -1)
  %.not.i22 = icmp eq i32 %29, 0
  br i1 %.not.i22, label %30, label %_ZL8getfieldP9lua_StatePKci.exit24

30:                                               ; preds = %_ZL8getfieldP9lua_StatePKci.exit21
  tail call void (ptr, ptr, ...) @_Z11luaL_errorLP9lua_StatePKcz(ptr noundef %0, ptr noundef nonnull @.str.18, ptr noundef nonnull @.str.11) #9
  unreachable

_ZL8getfieldP9lua_StatePKci.exit24:               ; preds = %_ZL8getfieldP9lua_StatePKci.exit21
  %31 = tail call noundef i32 @_Z14lua_tointegerxP9lua_StateiPi(ptr noundef %0, i32 noundef -1, ptr noundef null)
  tail call void @_Z10lua_settopP9lua_Statei(ptr noundef %0, i32 noundef -2)
  %32 = add nsw i32 %31, -1
  %33 = tail call noundef i32 @_Z15lua_rawgetfieldP9lua_StateiPKc(ptr noundef %0, i32 noundef -1, ptr noundef nonnull @.str.12)
  %34 = tail call noundef i32 @_Z12lua_isnumberP9lua_Statei(ptr noundef %0, i32 noundef -1)
  %.not.i25 = icmp eq i32 %34, 0
  br i1 %.not.i25, label %35, label %_ZL8getfieldP9lua_StatePKci.exit27

35:                                               ; preds = %_ZL8getfieldP9lua_StatePKci.exit24
  tail call void (ptr, ptr, ...) @_Z11luaL_errorLP9lua_StatePKcz(ptr noundef %0, ptr noundef nonnull @.str.18, ptr noundef nonnull @.str.12) #9
  unreachable

_ZL8getfieldP9lua_StatePKci.exit27:               ; preds = %_ZL8getfieldP9lua_StatePKci.exit24
  %36 = tail call noundef i32 @_Z14lua_tointegerxP9lua_StateiPi(ptr noundef %0, i32 noundef -1, ptr noundef null)
  tail call void @_Z10lua_settopP9lua_Statei(ptr noundef %0, i32 noundef -2)
  %37 = tail call noundef i32 @_Z15lua_rawgetfieldP9lua_StateiPKc(ptr noundef %0, i32 noundef -1, ptr noundef nonnull @.str.15)
  %38 = tail call noundef i32 @_Z8lua_typeP9lua_Statei(ptr noundef %0, i32 noundef -1)
  %39 = icmp eq i32 %38, 0
  br i1 %39, label %_ZL12getboolfieldP9lua_StatePKc.exit, label %40

40:                                               ; preds = %_ZL8getfieldP9lua_StatePKci.exit27
  %41 = tail call noundef i32 @_Z13lua_tobooleanP9lua_Statei(ptr noundef %0, i32 noundef -1)
  br label %_ZL12getboolfieldP9lua_StatePKc.exit

_ZL12getboolfieldP9lua_StatePKc.exit:             ; preds = %_ZL8getfieldP9lua_StatePKci.exit27, %40
  tail call void @_Z10lua_settopP9lua_Statei(ptr noundef %0, i32 noundef -2)
  %42 = srem i32 %32, 12
  %43 = icmp slt i32 %42, 2
  %44 = zext i1 %43 to i32
  %.neg.i = sdiv i32 %32, -12
  %45 = add nsw i32 %.neg.i, %44
  %reass.sub = sub i32 %36, %45
  %46 = add i32 %reass.sub, 4800
  %47 = mul nsw i32 %45, 12
  %48 = add nsw i32 %47, %31
  %49 = mul i32 %48, 153
  %50 = add i32 %49, -457
  %51 = sdiv i32 %50, 5
  %52 = mul nsw i32 %46, 365
  %53 = sdiv i32 %46, 4
  %.neg27.i = sdiv i32 %46, -100
  %54 = sdiv i32 %46, 400
  %55 = add i32 %51, %27
  %56 = add i32 %55, %52
  %57 = add i32 %56, %53
  %58 = add i32 %57, %.neg27.i
  %59 = add i32 %58, %54
  %60 = icmp slt i32 %59, 2472633
  br i1 %60, label %_ZL9os_timegmP2tm.exit.thread, label %61

61:                                               ; preds = %_ZL12getboolfieldP9lua_StatePKc.exit
  %62 = add nsw i32 %59, -32045
  %63 = zext nneg i32 %62 to i64
  %64 = mul nuw nsw i64 %63, 86400
  %65 = add nsw i64 %.0.i14, %.0.i
  %66 = add nsw i64 %65, %.0.i17
  %67 = add nsw i64 %66, %64
  %68 = tail call i64 @llvm.smax.i64(i64 %67, i64 210866803199)
  %.1.i = add nsw i64 %68, -210866803200
  br label %_ZL9os_timegmP2tm.exit

_ZL9os_timegmP2tm.exit:                           ; preds = %61, %4
  %.0 = phi i64 [ %5, %4 ], [ %.1.i, %61 ]
  %69 = icmp eq i64 %.0, -1
  br i1 %69, label %_ZL9os_timegmP2tm.exit.thread, label %70

_ZL9os_timegmP2tm.exit.thread:                    ; preds = %_ZL12getboolfieldP9lua_StatePKc.exit, %_ZL9os_timegmP2tm.exit
  tail call void @_Z11lua_pushnilP9lua_State(ptr noundef %0)
  br label %72

70:                                               ; preds = %_ZL9os_timegmP2tm.exit
  %71 = sitofp i64 %.0 to double
  tail call void @_Z14lua_pushnumberP9lua_Stated(ptr noundef %0, double noundef %71)
  br label %72

72:                                               ; preds = %70, %_ZL9os_timegmP2tm.exit.thread
  ret i32 1
}